; Function Attrs: mustprogress nofree norecurse nosync nounwind willreturn memory(argmem: readwrite) uwtable
define void @png_set_shift(ptr noalias noundef %0, ptr nocapture noundef readonly %1) local_unnamed_addr #0 {
  %3 = icmp eq ptr %0, null
  br i1 %3, label %9, label %4

4:                                                ; preds = %2
  %5 = getelementptr inbounds i8, ptr %0, i64 308
  %6 = load i32, ptr %5, align 4
  %7 = or i32 %6, 8
  store i32 %7, ptr %5, align 4
  %8 = getelementptr inbounds i8, ptr %0, i64 733
  tail call void @llvm.memcpy.p0.p0.i64(ptr noundef nonnull align 1 dereferenceable(5) %8, ptr noundef nonnull align 1 dereferenceable(5) %1, i64 5, i1 false)
  br label %9

9:                                                ; preds = %2, %4
  ret void
}